target datalayout = "e-m:e-p270:32:32-p271:32:32-p272:64:64-i64:64-i128:128-f80:128-n8:16:32:64-S128"
target triple = "x86_64-pc-linux-gnu"

%"class.std::filesystem::__cxx11::path" = type { %"class.std::__cxx11::basic_string", %"struct.std::filesystem::__cxx11::path::_List" }
%"class.std::__cxx11::basic_string" = type { %"struct.std::__cxx11::basic_string<char>::_Alloc_hider", i64, %union.anon.3 }
%"struct.std::__cxx11::basic_string<char>::_Alloc_hider" = type { ptr }
%union.anon.3 = type { i64, [8 x i8] }
%"struct.std::filesystem::__cxx11::path::_List" = type { %"class.std::unique_ptr" }
%"class.std::unique_ptr" = type { %"struct.std::__uniq_ptr_data" }
%"struct.std::__uniq_ptr_data" = type { %"class.std::__uniq_ptr_impl" }
%"class.std::__uniq_ptr_impl" = type { %"class.std::tuple" }
%"class.std::tuple" = type { %"struct.std::_Tuple_impl" }
%"struct.std::_Tuple_impl" = type { %"struct.std::_Head_base.5" }
%"struct.std::_Head_base.5" = type { ptr }
%struct.t_enxframe = type { double, i64, i64, double, i32, i32, i32, i32, ptr, i32, ptr, i32 }

@stderr = external global ptr, align 8
@.str.59 = private unnamed_addr constant [121 x i8] c"generated/home/dtcxzyw/WorkSpace/Projects/compilers/llvm-opt-benchmark/bench/gromacs/gromacs/src/gromacs/tools/check.cpp\00", align 1
@.str.92 = private unnamed_addr constant [26 x i8] c"Checking energy file %s\0A\0A\00", align 1
@.str.93 = private unnamed_addr constant [2 x i8] c"r\00", align 1
@.str.94 = private unnamed_addr constant [25 x i8] c"%d groups in energy file\00", align 1
@.str.95 = private unnamed_addr constant [3 x i8] c"fr\00", align 1
@.str.96 = private unnamed_addr constant [41 x i8] c"\0ATimesteps at t=%g don't match (%g, %g)\0A\00", align 1
@.str.97 = private unnamed_addr constant [36 x i8] c"\0Dframe: %6s (index %6d), t: %10.3f\0A\00", align 1
@.str.98 = private unnamed_addr constant [18 x i8] c"\0A\0AFound %d frames\00", align 1
@.str.99 = private unnamed_addr constant [26 x i8] c" with a timestep of %g ps\00", align 1
@.str.100 = private unnamed_addr constant [3 x i8] c".\0A\00", align 1

; Function Attrs: inlinehint mustprogress uwtable
define internal void @_ZL14gmx_sfree_implI10t_enxframeEvPKcS2_iPT_(ptr noundef %0, ptr noundef %1, i32 noundef %2, ptr noundef %3) #9 {
  %5 = alloca ptr, align 8
  %6 = alloca ptr, align 8
  %7 = alloca i32, align 4
  %8 = alloca ptr, align 8
  store ptr %0, ptr %5, align 8, !tbaa !24
  store ptr %1, ptr %6, align 8, !tbaa !24
  store i32 %2, ptr %7, align 4, !tbaa !4
  store ptr %3, ptr %8, align 8, !tbaa !185
  %9 = load ptr, ptr %5, align 8, !tbaa !24
  %10 = load ptr, ptr %6, align 8, !tbaa !24
  %11 = load i32, ptr %7, align 4, !tbaa !4
  %12 = load ptr, ptr %8, align 8, !tbaa !185
  call void @_Z9save_freePKcS0_iPv(ptr noundef %9, ptr noundef %10, i32 noundef %11, ptr noundef %12)
  ret void
}

; Function Attrs: inlinehint mustprogress nounwind uwtable
define linkonce_odr noundef float @_ZSt4fabsf(float noundef %0) #8 comdat {
  %2 = alloca float, align 4
  store float %0, ptr %2, align 4, !tbaa !25
  %3 = load float, ptr %2, align 4, !tbaa !25
  %4 = call float @llvm.fabs.f32(float %3)
  ret float %4
}

; Function Attrs: inlinehint mustprogress uwtable
define internal void @_ZL13gmx_snew_implI10t_enxframeEvPKcS2_iRPT_m(ptr noundef %0, ptr noundef %1, i32 noundef %2, ptr noundef nonnull align 8 dereferenceable(8) %3, i64 noundef %4) #9 {
  %6 = alloca ptr, align 8
  %7 = alloca ptr, align 8
  %8 = alloca i32, align 4
  %9 = alloca ptr, align 8
  %10 = alloca i64, align 8
  store ptr %0, ptr %6, align 8, !tbaa !24
  store ptr %1, ptr %7, align 8, !tbaa !24
  store i32 %2, ptr %8, align 4, !tbaa !4
  store ptr %3, ptr %9, align 8, !tbaa !501
  store i64 %4, ptr %10, align 8, !tbaa !227
  %11 = load ptr, ptr %6, align 8, !tbaa !24
  %12 = load ptr, ptr %7, align 8, !tbaa !24
  %13 = load i32, ptr %8, align 4, !tbaa !4
  %14 = load i64, ptr %10, align 8, !tbaa !227
  %15 = call noundef ptr @_Z11save_callocPKcS0_imm(ptr noundef %11, ptr noundef %12, i32 noundef %13, i64 noundef %14, i64 noundef 80)
  %16 = load ptr, ptr %9, align 8, !tbaa !501
  store ptr %15, ptr %16, align 8, !tbaa !185
  ret void
}

; Function Attrs: mustprogress uwtable
define internal void @_ZL7chk_enxPKc(ptr noundef %0) #0 personality ptr @__gxx_personality_v0 {
  %2 = alloca ptr, align 8
  %3 = alloca i32, align 4
  %4 = alloca i32, align 4
  %5 = alloca ptr, align 8
  %6 = alloca ptr, align 8
  %7 = alloca ptr, align 8
  %8 = alloca i8, align 1
  %9 = alloca i8, align 1
  %10 = alloca float, align 4
  %11 = alloca float, align 4
  %12 = alloca float, align 4
  %13 = alloca [22 x i8], align 16
  %14 = alloca %"class.std::filesystem::__cxx11::path", align 8
  %15 = alloca ptr, align 8
  %16 = alloca i32, align 4
  store ptr %0, ptr %2, align 8, !tbaa !24
  call void @llvm.lifetime.start.p0(i64 4, ptr %3) #18
  call void @llvm.lifetime.start.p0(i64 4, ptr %4) #18
  call void @llvm.lifetime.start.p0(i64 8, ptr %5) #18
  call void @llvm.lifetime.start.p0(i64 8, ptr %6) #18
  store ptr null, ptr %6, align 8, !tbaa !45
  call void @llvm.lifetime.start.p0(i64 8, ptr %7) #18
  call void @llvm.lifetime.start.p0(i64 1, ptr %8) #18
  call void @llvm.lifetime.start.p0(i64 1, ptr %9) #18
  call void @llvm.lifetime.start.p0(i64 4, ptr %10) #18
  call void @llvm.lifetime.start.p0(i64 4, ptr %11) #18
  call void @llvm.lifetime.start.p0(i64 4, ptr %12) #18
  call void @llvm.lifetime.start.p0(i64 22, ptr %13) #18
  %17 = load ptr, ptr @stderr, align 8, !tbaa !35
  %18 = load ptr, ptr %2, align 8, !tbaa !24
  %19 = call i32 (ptr, ptr, ...) @fprintf(ptr noundef %17, ptr noundef @.str.92, ptr noundef %18) #18
  call void @llvm.lifetime.start.p0(i64 40, ptr %14) #18
  call void @_ZNSt10filesystem7__cxx114pathC2IPKcS1_EERKT_NS1_6formatE(ptr noundef nonnull align 8 dereferenceable(40) %14, ptr noundef nonnull align 8 dereferenceable(8) %2, i8 noundef zeroext 2)
  %20 = invoke noundef ptr @_Z8open_enxRKNSt10filesystem7__cxx114pathEPKc(ptr noundef nonnull align 8 dereferenceable(40) %14, ptr noundef @.str.93)
          to label %21 unwind label %76

21:                                               ; preds = %1
  store ptr %20, ptr %5, align 8, !tbaa !183
  call void @_ZNSt10filesystem7__cxx114pathD2Ev(ptr noundef nonnull align 8 dereferenceable(40) %14) #18
  call void @llvm.lifetime.end.p0(i64 40, ptr %14) #18
  %22 = load ptr, ptr %5, align 8, !tbaa !183
  call void @_Z9do_enxnmsP9ener_filePiPP11gmx_enxnm_t(ptr noundef %22, ptr noundef %3, ptr noundef %6)
  %23 = load ptr, ptr @stderr, align 8, !tbaa !35
  %24 = load i32, ptr %3, align 4, !tbaa !4
  %25 = call i32 (ptr, ptr, ...) @fprintf(ptr noundef %23, ptr noundef @.str.94, i32 noundef %24) #18
  call void @_ZL13gmx_snew_implI10t_enxframeEvPKcS2_iRPT_m(ptr noundef @.str.95, ptr noundef @.str.59, i32 noundef 718, ptr noundef nonnull align 8 dereferenceable(8) %7, i64 noundef 1)
  store float -2.000000e+00, ptr %12, align 4, !tbaa !25
  store float -1.000000e+00, ptr %11, align 4, !tbaa !25
  store i32 0, ptr %4, align 4, !tbaa !4
  store float 0.000000e+00, ptr %10, align 4, !tbaa !25
  store i8 0, ptr %9, align 1, !tbaa !27
  store i8 1, ptr %8, align 1, !tbaa !27
  br label %26

26:                                               ; preds = %109, %21
  %27 = load ptr, ptr %5, align 8, !tbaa !183
  %28 = load ptr, ptr %7, align 8, !tbaa !185
  %29 = call noundef zeroext i1 @_Z6do_enxP9ener_fileP10t_enxframe(ptr noundef %27, ptr noundef %28)
  br i1 %29, label %30, label %112

30:                                               ; preds = %26
  %31 = load i32, ptr %4, align 4, !tbaa !4
  %32 = icmp sge i32 %31, 2
  br i1 %32, label %33, label %81

33:                                               ; preds = %30
  %34 = load ptr, ptr %7, align 8, !tbaa !185
  %35 = getelementptr inbounds nuw %struct.t_enxframe, ptr %34, i32 0, i32 0
  %36 = load double, ptr %35, align 8, !tbaa !187
  %37 = load float, ptr %11, align 4, !tbaa !25
  %38 = fpext float %37 to double
  %39 = fsub double %36, %38
  %40 = load float, ptr %11, align 4, !tbaa !25
  %41 = load float, ptr %12, align 4, !tbaa !25
  %42 = fsub float %40, %41
  %43 = fpext float %42 to double
  %44 = fsub double %39, %43
  %45 = call double @llvm.fabs.f64(double %44)
  %46 = load ptr, ptr %7, align 8, !tbaa !185
  %47 = getelementptr inbounds nuw %struct.t_enxframe, ptr %46, i32 0, i32 0
  %48 = load double, ptr %47, align 8, !tbaa !187
  %49 = load float, ptr %11, align 4, !tbaa !25
  %50 = fpext float %49 to double
  %51 = fsub double %48, %50
  %52 = call double @llvm.fabs.f64(double %51)
  %53 = load float, ptr %11, align 4, !tbaa !25
  %54 = load float, ptr %12, align 4, !tbaa !25
  %55 = fsub float %53, %54
  %56 = call noundef float @_ZSt4fabsf(float noundef %55)
  %57 = fpext float %56 to double
  %58 = fadd double %52, %57
  %59 = fmul double 1.000000e-01, %58
  %60 = fcmp ogt double %45, %59
  br i1 %60, label %61, label %80

61:                                               ; preds = %33
  store i8 0, ptr %8, align 1, !tbaa !27
  %62 = load ptr, ptr @stderr, align 8, !tbaa !35
  %63 = load float, ptr %11, align 4, !tbaa !25
  %64 = fpext float %63 to double
  %65 = load float, ptr %11, align 4, !tbaa !25
  %66 = load float, ptr %12, align 4, !tbaa !25
  %67 = fsub float %65, %66
  %68 = fpext float %67 to double
  %69 = load ptr, ptr %7, align 8, !tbaa !185
  %70 = getelementptr inbounds nuw %struct.t_enxframe, ptr %69, i32 0, i32 0
  %71 = load double, ptr %70, align 8, !tbaa !187
  %72 = load float, ptr %11, align 4, !tbaa !25
  %73 = fpext float %72 to double
  %74 = fsub double %71, %73
  %75 = call i32 (ptr, ptr, ...) @fprintf(ptr noundef %62, ptr noundef @.str.96, double noundef %64, double noundef %68, double noundef %74) #18
  br label %80

76:                                               ; preds = %1
  %77 = landingpad { ptr, i32 }
          cleanup
  %78 = extractvalue { ptr, i32 } %77, 0
  store ptr %78, ptr %15, align 8
  %79 = extractvalue { ptr, i32 } %77, 1
  store i32 %79, ptr %16, align 4
  call void @_ZNSt10filesystem7__cxx114pathD2Ev(ptr noundef nonnull align 8 dereferenceable(40) %14) #18
  call void @llvm.lifetime.end.p0(i64 40, ptr %14) #18
  call void @llvm.lifetime.end.p0(i64 22, ptr %13) #18
  call void @llvm.lifetime.end.p0(i64 4, ptr %12) #18
  call void @llvm.lifetime.end.p0(i64 4, ptr %11) #18
  call void @llvm.lifetime.end.p0(i64 4, ptr %10) #18
  call void @llvm.lifetime.end.p0(i64 1, ptr %9) #18
  call void @llvm.lifetime.end.p0(i64 1, ptr %8) #18
  call void @llvm.lifetime.end.p0(i64 8, ptr %7) #18
  call void @llvm.lifetime.end.p0(i64 8, ptr %6) #18
  call void @llvm.lifetime.end.p0(i64 8, ptr %5) #18
  call void @llvm.lifetime.end.p0(i64 4, ptr %4) #18
  call void @llvm.lifetime.end.p0(i64 4, ptr %3) #18
  br label %139

80:                                               ; preds = %61, %33
  br label %81

81:                                               ; preds = %80, %30
  %82 = load float, ptr %11, align 4, !tbaa !25
  store float %82, ptr %12, align 4, !tbaa !25
  %83 = load ptr, ptr %7, align 8, !tbaa !185
  %84 = getelementptr inbounds nuw %struct.t_enxframe, ptr %83, i32 0, i32 0
  %85 = load double, ptr %84, align 8, !tbaa !187
  %86 = fptrunc double %85 to float
  store float %86, ptr %11, align 4, !tbaa !25
  %87 = load i8, ptr %9, align 1, !tbaa !27, !range !39, !noundef !40
  %88 = trunc i8 %87 to i1
  br i1 %88, label %94, label %89

89:                                               ; preds = %81
  %90 = load ptr, ptr %7, align 8, !tbaa !185
  %91 = getelementptr inbounds nuw %struct.t_enxframe, ptr %90, i32 0, i32 0
  %92 = load double, ptr %91, align 8, !tbaa !187
  %93 = fptrunc double %92 to float
  store float %93, ptr %10, align 4, !tbaa !25
  store i8 1, ptr %9, align 1, !tbaa !27
  br label %94

94:                                               ; preds = %89, %81
  %95 = load i32, ptr %4, align 4, !tbaa !4
  %96 = icmp eq i32 %95, 0
  br i1 %96, label %97, label %109

97:                                               ; preds = %94
  %98 = load ptr, ptr @stderr, align 8, !tbaa !35
  %99 = load ptr, ptr %7, align 8, !tbaa !185
  %100 = getelementptr inbounds nuw %struct.t_enxframe, ptr %99, i32 0, i32 1
  %101 = load i64, ptr %100, align 8, !tbaa !191
  %102 = getelementptr inbounds [22 x i8], ptr %13, i64 0, i64 0
  %103 = call noundef ptr @_Z12gmx_step_strlPc(i64 noundef %101, ptr noundef %102)
  %104 = load i32, ptr %4, align 4, !tbaa !4
  %105 = load ptr, ptr %7, align 8, !tbaa !185
  %106 = getelementptr inbounds nuw %struct.t_enxframe, ptr %105, i32 0, i32 0
  %107 = load double, ptr %106, align 8, !tbaa !187
  %108 = call i32 (ptr, ptr, ...) @fprintf(ptr noundef %98, ptr noundef @.str.97, ptr noundef %103, i32 noundef %104, double noundef %107) #18
  br label %109

109:                                              ; preds = %97, %94
  %110 = load i32, ptr %4, align 4, !tbaa !4
  %111 = add nsw i32 %110, 1
  store i32 %111, ptr %4, align 4, !tbaa !4
  br label %26, !llvm.loop !192

112:                                              ; preds = %26
  %113 = load ptr, ptr @stderr, align 8, !tbaa !35
  %114 = load i32, ptr %4, align 4, !tbaa !4
  %115 = call i32 (ptr, ptr, ...) @fprintf(ptr noundef %113, ptr noundef @.str.98, i32 noundef %114) #18
  %116 = load i8, ptr %8, align 1, !tbaa !27, !range !39, !noundef !40
  %117 = trunc i8 %116 to i1
  br i1 %117, label %118, label %132

118:                                              ; preds = %112
  %119 = load i32, ptr %4, align 4, !tbaa !4
  %120 = icmp sgt i32 %119, 1
  br i1 %120, label %121, label %132

121:                                              ; preds = %118
  %122 = load ptr, ptr @stderr, align 8, !tbaa !35
  %123 = load float, ptr %11, align 4, !tbaa !25
  %124 = load float, ptr %10, align 4, !tbaa !25
  %125 = fsub float %123, %124
  %126 = load i32, ptr %4, align 4, !tbaa !4
  %127 = sub nsw i32 %126, 1
  %128 = sitofp i32 %127 to float
  %129 = fdiv float %125, %128
  %130 = fpext float %129 to double
  %131 = call i32 (ptr, ptr, ...) @fprintf(ptr noundef %122, ptr noundef @.str.99, double noundef %130) #18
  br label %132

132:                                              ; preds = %121, %118, %112
  %133 = load ptr, ptr @stderr, align 8, !tbaa !35
  %134 = call i32 (ptr, ptr, ...) @fprintf(ptr noundef %133, ptr noundef @.str.100) #18
  %135 = load ptr, ptr %7, align 8, !tbaa !185
  call void @_Z13free_enxframeP10t_enxframe(ptr noundef %135)
  %136 = load i32, ptr %3, align 4, !tbaa !4
  %137 = load ptr, ptr %6, align 8, !tbaa !45
  call void @_Z11free_enxnmsiP11gmx_enxnm_t(i32 noundef %136, ptr noundef %137)
  %138 = load ptr, ptr %7, align 8, !tbaa !185
  call void @_ZL14gmx_sfree_implI10t_enxframeEvPKcS2_iPT_(ptr noundef @.str.95, ptr noundef @.str.59, i32 noundef 759, ptr noundef %138)
  call void @llvm.lifetime.end.p0(i64 22, ptr %13) #18
  call void @llvm.lifetime.end.p0(i64 4, ptr %12) #18
  call void @llvm.lifetime.end.p0(i64 4, ptr %11) #18
  call void @llvm.lifetime.end.p0(i64 4, ptr %10) #18
  call void @llvm.lifetime.end.p0(i64 1, ptr %9) #18
  call void @llvm.lifetime.end.p0(i64 1, ptr %8) #18
  call void @llvm.lifetime.end.p0(i64 8, ptr %7) #18
  call void @llvm.lifetime.end.p0(i64 8, ptr %6) #18
  call void @llvm.lifetime.end.p0(i64 8, ptr %5) #18
  call void @llvm.lifetime.end.p0(i64 4, ptr %4) #18
  call void @llvm.lifetime.end.p0(i64 4, ptr %3) #18
  ret void

139:                                              ; preds = %76
  %140 = load ptr, ptr %15, align 8
  %141 = load i32, ptr %16, align 4
  %142 = insertvalue { ptr, i32 } poison, ptr %140, 0
  %143 = insertvalue { ptr, i32 } %142, i32 %141, 1
  resume { ptr, i32 } %143
}