; Function Attrs: cold mustprogress uwtable
define internal fastcc void @_ZL7chk_enxPKc(ptr noundef %0) unnamed_addr #6 personality ptr @__gxx_personality_v0 {
  %2 = alloca ptr, align 8
  %3 = alloca i32, align 4
  %4 = alloca ptr, align 8
  %5 = alloca [22 x i8], align 16
  %6 = alloca %"class.std::filesystem::__cxx11::path", align 8
  store ptr %0, ptr %2, align 8, !tbaa !21
  call void @llvm.lifetime.start.p0(i64 4, ptr nonnull %3) #20
  call void @llvm.lifetime.start.p0(i64 8, ptr nonnull %4) #20
  store ptr null, ptr %4, align 8, !tbaa !224
  call void @llvm.lifetime.start.p0(i64 22, ptr nonnull %5) #20
  %7 = load ptr, ptr @stderr, align 8, !tbaa !32
  %8 = tail call i32 (ptr, ptr, ...) @fprintf(ptr noundef %7, ptr noundef nonnull @.str.92, ptr noundef %0) #24
  call void @llvm.lifetime.start.p0(i64 40, ptr nonnull %6) #20
  call void @_ZNSt10filesystem7__cxx114pathC2IPKcS1_EERKT_NS1_6formatE(ptr noundef nonnull align 8 dereferenceable(40) %6, ptr noundef nonnull align 8 dereferenceable(8) %2, i8 noundef zeroext 2)
  %9 = invoke noundef ptr @_Z8open_enxRKNSt10filesystem7__cxx114pathEPKc(ptr noundef nonnull align 8 dereferenceable(40) %6, ptr noundef nonnull @.str.93)
          to label %10 unwind label %47

10:                                               ; preds = %1
  %11 = getelementptr inbounds nuw i8, ptr %6, i64 32
  %12 = load ptr, ptr %11, align 8, !tbaa !44
  %.not.i.i.i = icmp eq ptr %12, null
  br i1 %.not.i.i.i, label %_ZNSt10filesystem7__cxx114path5_ListD2Ev.exit.i, label %13

13:                                               ; preds = %10
  call void @_ZNKSt10filesystem7__cxx114path5_List13_Impl_deleterclEPNS2_5_ImplE(ptr noundef nonnull align 8 dereferenceable(8) %11, ptr noundef nonnull %12) #20
  br label %_ZNSt10filesystem7__cxx114path5_ListD2Ev.exit.i

_ZNSt10filesystem7__cxx114path5_ListD2Ev.exit.i:  ; preds = %13, %10
  store ptr null, ptr %11, align 8, !tbaa !44
  %14 = load ptr, ptr %6, align 8, !tbaa !46
  %15 = getelementptr inbounds nuw i8, ptr %6, i64 16
  %16 = icmp eq ptr %14, %15
  br i1 %16, label %_ZNKSt7__cxx1112basic_stringIcSt11char_traitsIcESaIcEE11_M_is_localEv.exit.thread.i.i.i, label %_ZNKSt7__cxx1112basic_stringIcSt11char_traitsIcESaIcEE11_M_is_localEv.exit.i.i.i

_ZNKSt7__cxx1112basic_stringIcSt11char_traitsIcESaIcEE11_M_is_localEv.exit.thread.i.i.i: ; preds = %_ZNSt10filesystem7__cxx114path5_ListD2Ev.exit.i
  %17 = getelementptr inbounds nuw i8, ptr %6, i64 8
  %18 = load i64, ptr %17, align 8, !tbaa !49
  %19 = icmp ult i64 %18, 16
  call void @llvm.assume(i1 %19)
  br label %_ZNSt10filesystem7__cxx114pathD2Ev.exit

_ZNKSt7__cxx1112basic_stringIcSt11char_traitsIcESaIcEE11_M_is_localEv.exit.i.i.i: ; preds = %_ZNSt10filesystem7__cxx114path5_ListD2Ev.exit.i
  %20 = load i64, ptr %15, align 8, !tbaa !30
  %21 = add i64 %20, 1
  call void @_ZdlPvm(ptr noundef %14, i64 noundef %21) #22
  br label %_ZNSt10filesystem7__cxx114pathD2Ev.exit

_ZNSt10filesystem7__cxx114pathD2Ev.exit:          ; preds = %_ZNKSt7__cxx1112basic_stringIcSt11char_traitsIcESaIcEE11_M_is_localEv.exit.thread.i.i.i, %_ZNKSt7__cxx1112basic_stringIcSt11char_traitsIcESaIcEE11_M_is_localEv.exit.i.i.i
  call void @llvm.lifetime.end.p0(i64 40, ptr nonnull %6) #20
  call void @_Z9do_enxnmsP9ener_filePiPP11gmx_enxnm_t(ptr noundef %9, ptr noundef nonnull %3, ptr noundef nonnull %4)
  %22 = load ptr, ptr @stderr, align 8, !tbaa !32
  %23 = load i32, ptr %3, align 4, !tbaa !4
  %24 = call i32 (ptr, ptr, ...) @fprintf(ptr noundef %22, ptr noundef nonnull @.str.94, i32 noundef %23) #24
  %25 = call noundef ptr @_Z11save_callocPKcS0_imm(ptr noundef nonnull @.str.95, ptr noundef nonnull @.str.59, i32 noundef 718, i64 noundef 1, i64 noundef 80)
  %26 = call noundef zeroext i1 @_Z6do_enxP9ener_fileP10t_enxframe(ptr noundef %9, ptr noundef %25)
  br i1 %26, label %.lr.ph, label %._crit_edge

.lr.ph:                                           ; preds = %_ZNSt10filesystem7__cxx114pathD2Ev.exit
  %27 = getelementptr inbounds nuw i8, ptr %25, i64 8
  br label %28

28:                                               ; preds = %.lr.ph, %60
  %.051 = phi i32 [ 0, %.lr.ph ], [ %62, %60 ]
  %.02650 = phi i1 [ true, %.lr.ph ], [ %.143, %60 ]
  %.02749 = phi float [ -2.000000e+00, %.lr.ph ], [ %.02848, %60 ]
  %.02848 = phi float [ -1.000000e+00, %.lr.ph ], [ %61, %60 ]
  %.02947 = phi float [ 0.000000e+00, %.lr.ph ], [ %.13045, %60 ]
  %.03146 = phi i1 [ false, %.lr.ph ], [ true, %60 ]
  %29 = icmp samesign ugt i32 %.051, 1
  %30 = load double, ptr %25, align 8, !tbaa !225
  br i1 %29, label %31, label %51

31:                                               ; preds = %28
  %32 = fpext float %.02848 to double
  %33 = fsub double %30, %32
  %34 = fsub float %.02848, %.02749
  %35 = fpext float %34 to double
  %36 = fsub double %33, %35
  %37 = call double @llvm.fabs.f64(double %36)
  %38 = call double @llvm.fabs.f64(double %33)
  %39 = call noundef float @llvm.fabs.f32(float %34)
  %40 = fpext float %39 to double
  %41 = fadd double %38, %40
  %42 = fmul double %41, 1.000000e-01
  %43 = fcmp ogt double %37, %42
  br i1 %43, label %44, label %.thread

44:                                               ; preds = %31
  %45 = load ptr, ptr @stderr, align 8, !tbaa !32
  %46 = call i32 (ptr, ptr, ...) @fprintf(ptr noundef %45, ptr noundef nonnull @.str.96, double noundef %32, double noundef %35, double noundef %33) #24
  %.pre = load double, ptr %25, align 8, !tbaa !225
  br label %.thread

47:                                               ; preds = %1
  %48 = landingpad { ptr, i32 }
          cleanup
  call void @_ZNSt10filesystem7__cxx114pathD2Ev(ptr noundef nonnull align 8 dereferenceable(40) %6) #20
  call void @llvm.lifetime.end.p0(i64 40, ptr nonnull %6) #20
  call void @llvm.lifetime.end.p0(i64 22, ptr nonnull %5) #20
  call void @llvm.lifetime.end.p0(i64 8, ptr nonnull %4) #20
  call void @llvm.lifetime.end.p0(i64 4, ptr nonnull %3) #20
  resume { ptr, i32 } %48

.thread:                                          ; preds = %31, %44
  %49 = phi double [ %30, %31 ], [ %.pre, %44 ]
  %.1.ph = phi i1 [ %.02650, %31 ], [ false, %44 ]
  %50 = fptrunc double %49 to float
  %.13042 = select i1 %.03146, float %.02947, float %50
  br label %60

51:                                               ; preds = %28
  %52 = fptrunc double %30 to float
  %.130 = select i1 %.03146, float %.02947, float %52
  %53 = icmp eq i32 %.051, 0
  br i1 %53, label %54, label %60

54:                                               ; preds = %51
  %55 = load ptr, ptr @stderr, align 8, !tbaa !32
  %56 = load i64, ptr %27, align 8, !tbaa !229
  %57 = call noundef ptr @_Z12gmx_step_strlPc(i64 noundef %56, ptr noundef nonnull %5)
  %58 = load double, ptr %25, align 8, !tbaa !225
  %59 = call i32 (ptr, ptr, ...) @fprintf(ptr noundef %55, ptr noundef nonnull @.str.97, ptr noundef %57, i32 noundef 0, double noundef %58) #24
  br label %60

60:                                               ; preds = %.thread, %54, %51
  %.13045 = phi float [ %.13042, %.thread ], [ %.130, %54 ], [ %.130, %51 ]
  %61 = phi float [ %50, %.thread ], [ %52, %54 ], [ %52, %51 ]
  %.143 = phi i1 [ %.1.ph, %.thread ], [ %.02650, %54 ], [ %.02650, %51 ]
  %62 = add nuw nsw i32 %.051, 1
  %63 = call noundef zeroext i1 @_Z6do_enxP9ener_fileP10t_enxframe(ptr noundef %9, ptr noundef nonnull %25)
  br i1 %63, label %28, label %._crit_edge, !llvm.loop !230

._crit_edge:                                      ; preds = %60, %_ZNSt10filesystem7__cxx114pathD2Ev.exit
  %.029.lcssa = phi float [ 0.000000e+00, %_ZNSt10filesystem7__cxx114pathD2Ev.exit ], [ %.13045, %60 ]
  %.028.lcssa = phi float [ -1.000000e+00, %_ZNSt10filesystem7__cxx114pathD2Ev.exit ], [ %61, %60 ]
  %.026.lcssa = phi i1 [ true, %_ZNSt10filesystem7__cxx114pathD2Ev.exit ], [ %.143, %60 ]
  %.0.lcssa = phi i32 [ 0, %_ZNSt10filesystem7__cxx114pathD2Ev.exit ], [ %62, %60 ]
  %64 = load ptr, ptr @stderr, align 8, !tbaa !32
  %65 = call i32 (ptr, ptr, ...) @fprintf(ptr noundef %64, ptr noundef nonnull @.str.98, i32 noundef %.0.lcssa) #24
  %66 = icmp samesign ugt i32 %.0.lcssa, 1
  %or.cond = select i1 %.026.lcssa, i1 %66, i1 false
  br i1 %or.cond, label %67, label %75

67:                                               ; preds = %._crit_edge
  %68 = load ptr, ptr @stderr, align 8, !tbaa !32
  %69 = fsub float %.028.lcssa, %.029.lcssa
  %70 = add nsw i32 %.0.lcssa, -1
  %71 = uitofp nneg i32 %70 to float
  %72 = fdiv float %69, %71
  %73 = fpext float %72 to double
  %74 = call i32 (ptr, ptr, ...) @fprintf(ptr noundef %68, ptr noundef nonnull @.str.99, double noundef %73) #24
  br label %75

75:                                               ; preds = %67, %._crit_edge
  %76 = load ptr, ptr @stderr, align 8, !tbaa !32
  %77 = call i64 @fwrite(ptr nonnull @.str.100, i64 2, i64 1, ptr %76) #21
  call void @_Z13free_enxframeP10t_enxframe(ptr noundef %25)
  %78 = load i32, ptr %3, align 4, !tbaa !4
  %79 = load ptr, ptr %4, align 8, !tbaa !224
  call void @_Z11free_enxnmsiP11gmx_enxnm_t(i32 noundef %78, ptr noundef %79)
  call void @_Z9save_freePKcS0_iPv(ptr noundef nonnull @.str.95, ptr noundef nonnull @.str.59, i32 noundef 759, ptr noundef %25)
  call void @llvm.lifetime.end.p0(i64 22, ptr nonnull %5) #20
  call void @llvm.lifetime.end.p0(i64 8, ptr nonnull %4) #20
  call void @llvm.lifetime.end.p0(i64 4, ptr nonnull %3) #20
  ret void
}